target datalayout = "e-m:e-p270:32:32-p271:32:32-p272:64:64-i64:64-i128:128-f80:128-n8:16:32:64-S128"
target triple = "x86_64-pc-linux-gnu"

%struct.Vec_Int_t_ = type { i32, i32, ptr }
%struct.Acb_Mfs_t_ = type { ptr, ptr, [3 x ptr], ptr, ptr, ptr, i32, i32, i32, i32, [8 x i32], i32, i32, i64, i64, i64, i64, i64, i64, i64 }

; Function Attrs: inlinehint nounwind uwtable
define internal void @Vec_IntFree(ptr noundef %0) #1 {
  %2 = alloca ptr, align 8
  store ptr %0, ptr %2, align 8, !tbaa !9
  %3 = load ptr, ptr %2, align 8, !tbaa !9
  %4 = getelementptr inbounds nuw %struct.Vec_Int_t_, ptr %3, i32 0, i32 2
  %5 = load ptr, ptr %4, align 8, !tbaa !27
  %6 = icmp ne ptr %5, null
  br i1 %6, label %7, label %13

7:                                                ; preds = %1
  %8 = load ptr, ptr %2, align 8, !tbaa !9
  %9 = getelementptr inbounds nuw %struct.Vec_Int_t_, ptr %8, i32 0, i32 2
  %10 = load ptr, ptr %9, align 8, !tbaa !27
  call void @free(ptr noundef %10) #12
  %11 = load ptr, ptr %2, align 8, !tbaa !9
  %12 = getelementptr inbounds nuw %struct.Vec_Int_t_, ptr %11, i32 0, i32 2
  store ptr null, ptr %12, align 8, !tbaa !27
  br label %14

13:                                               ; preds = %1
  br label %14

14:                                               ; preds = %13, %7
  %15 = load ptr, ptr %2, align 8, !tbaa !9
  %16 = icmp ne ptr %15, null
  br i1 %16, label %17, label %19

17:                                               ; preds = %14
  %18 = load ptr, ptr %2, align 8, !tbaa !9
  call void @free(ptr noundef %18) #12
  store ptr null, ptr %2, align 8, !tbaa !9
  br label %20

19:                                               ; preds = %14
  br label %20

20:                                               ; preds = %19, %17
  ret void
}

; Function Attrs: nounwind uwtable
define void @Acb_MfsStop(ptr noundef %0) #0 {
  %2 = alloca ptr, align 8
  store ptr %0, ptr %2, align 8, !tbaa !150
  %3 = load ptr, ptr %2, align 8, !tbaa !150
  %4 = getelementptr inbounds nuw %struct.Acb_Mfs_t_, ptr %3, i32 0, i32 4
  %5 = load ptr, ptr %4, align 8, !tbaa !157
  call void @Vec_IntFree(ptr noundef %5)
  %6 = load ptr, ptr %2, align 8, !tbaa !150
  %7 = getelementptr inbounds nuw %struct.Acb_Mfs_t_, ptr %6, i32 0, i32 3
  %8 = load ptr, ptr %7, align 8, !tbaa !156
  call void @Vec_IntFree(ptr noundef %8)
  %9 = load ptr, ptr %2, align 8, !tbaa !150
  %10 = getelementptr inbounds nuw %struct.Acb_Mfs_t_, ptr %9, i32 0, i32 5
  %11 = load ptr, ptr %10, align 8, !tbaa !158
  call void @Vec_IntFree(ptr noundef %11)
  %12 = load ptr, ptr %2, align 8, !tbaa !150
  %13 = getelementptr inbounds nuw %struct.Acb_Mfs_t_, ptr %12, i32 0, i32 2
  %14 = getelementptr inbounds [3 x ptr], ptr %13, i64 0, i64 0
  %15 = load ptr, ptr %14, align 8, !tbaa !37
  call void @sat_solver_delete(ptr noundef %15)
  %16 = load ptr, ptr %2, align 8, !tbaa !150
  %17 = getelementptr inbounds nuw %struct.Acb_Mfs_t_, ptr %16, i32 0, i32 2
  %18 = getelementptr inbounds [3 x ptr], ptr %17, i64 0, i64 1
  %19 = load ptr, ptr %18, align 8, !tbaa !37
  call void @sat_solver_delete(ptr noundef %19)
  %20 = load ptr, ptr %2, align 8, !tbaa !150
  %21 = getelementptr inbounds nuw %struct.Acb_Mfs_t_, ptr %20, i32 0, i32 2
  %22 = getelementptr inbounds [3 x ptr], ptr %21, i64 0, i64 2
  %23 = load ptr, ptr %22, align 8, !tbaa !37
  call void @sat_solver_delete(ptr noundef %23)
  %24 = load ptr, ptr %2, align 8, !tbaa !150
  %25 = icmp ne ptr %24, null
  br i1 %25, label %26, label %28

26:                                               ; preds = %1
  %27 = load ptr, ptr %2, align 8, !tbaa !150
  call void @free(ptr noundef %27) #12
  store ptr null, ptr %2, align 8, !tbaa !150
  br label %29

28:                                               ; preds = %1
  br label %29

29:                                               ; preds = %28, %26
  ret void
}