; Function Attrs: nounwind uwtable
define void @Acb_MfsStop(ptr noundef captures(none) %0) local_unnamed_addr #0 {
  %2 = getelementptr inbounds nuw i8, ptr %0, i64 48
  %3 = load ptr, ptr %2, align 8, !tbaa !141
  %4 = getelementptr inbounds nuw i8, ptr %3, i64 8
  %5 = load ptr, ptr %4, align 8, !tbaa !18
  %.not.i = icmp eq ptr %5, null
  br i1 %.not.i, label %Vec_IntFree.exit, label %6

6:                                                ; preds = %1
  tail call void @free(ptr noundef nonnull %5) #25
  br label %Vec_IntFree.exit

Vec_IntFree.exit:                                 ; preds = %1, %6
  tail call void @free(ptr noundef nonnull %3) #25
  %7 = getelementptr inbounds nuw i8, ptr %0, i64 40
  %8 = load ptr, ptr %7, align 8, !tbaa !140
  %9 = getelementptr inbounds nuw i8, ptr %8, i64 8
  %10 = load ptr, ptr %9, align 8, !tbaa !18
  %.not.i8 = icmp eq ptr %10, null
  br i1 %.not.i8, label %Vec_IntFree.exit9, label %11

11:                                               ; preds = %Vec_IntFree.exit
  tail call void @free(ptr noundef nonnull %10) #25
  br label %Vec_IntFree.exit9

Vec_IntFree.exit9:                                ; preds = %Vec_IntFree.exit, %11
  tail call void @free(ptr noundef nonnull %8) #25
  %12 = getelementptr inbounds nuw i8, ptr %0, i64 56
  %13 = load ptr, ptr %12, align 8, !tbaa !142
  %14 = getelementptr inbounds nuw i8, ptr %13, i64 8
  %15 = load ptr, ptr %14, align 8, !tbaa !18
  %.not.i10 = icmp eq ptr %15, null
  br i1 %.not.i10, label %17, label %16

16:                                               ; preds = %Vec_IntFree.exit9
  tail call void @free(ptr noundef nonnull %15) #25
  br label %17

17:                                               ; preds = %Vec_IntFree.exit9, %16
  tail call void @free(ptr noundef nonnull %13) #25
  %18 = getelementptr inbounds nuw i8, ptr %0, i64 16
  %19 = load ptr, ptr %18, align 8, !tbaa !138
  tail call void @sat_solver_delete(ptr noundef %19) #25
  %20 = getelementptr inbounds nuw i8, ptr %0, i64 24
  %21 = load ptr, ptr %20, align 8, !tbaa !138
  tail call void @sat_solver_delete(ptr noundef %21) #25
  %22 = getelementptr inbounds nuw i8, ptr %0, i64 32
  %23 = load ptr, ptr %22, align 8, !tbaa !138
  tail call void @sat_solver_delete(ptr noundef %23) #25
  tail call void @free(ptr noundef nonnull %0) #25
  ret void
}